; Function Attrs: null_pointer_is_valid sspstrong uwtable
define internal i32 @dissect_mac_fdd_pch(ptr noundef %0, ptr noundef %1, ptr noundef %2, ptr noundef %3) #1 {
  %5 = getelementptr inbounds nuw i8, ptr %1, i64 8
  %6 = load ptr, ptr %5, align 8
  tail call void @col_set_str(ptr noundef %6, i32 noundef 35, ptr noundef nonnull @.str.65)
  %7 = load ptr, ptr %5, align 8
  tail call void @col_set_str(ptr noundef %7, i32 noundef 25, ptr noundef nonnull @.str.97)
  %.not = icmp eq ptr %2, null
  br i1 %.not, label %proto_item_set_generated.exit, label %8

8:                                                ; preds = %4
  %9 = load i32, ptr @proto_umts_mac, align 4
  %10 = tail call ptr @proto_tree_add_item(ptr noundef nonnull %2, i32 noundef %9, ptr noundef %0, i32 noundef 0, i32 noundef -1, i32 noundef 0)
  %11 = load i32, ptr @ett_mac_pch, align 4
  %12 = tail call ptr @proto_item_add_subtree(ptr noundef %10, i32 noundef %11)
  tail call void (ptr, ptr, ...) @proto_item_append_text(ptr noundef %10, ptr noundef nonnull @.str.124)
  %13 = load i32, ptr @hf_mac_channel, align 4
  %14 = tail call ptr @proto_tree_add_uint(ptr noundef %12, i32 noundef %13, ptr noundef %0, i32 noundef 0, i32 noundef 0, i32 noundef 0)
  %.not.i = icmp eq ptr %14, null
  br i1 %.not.i, label %proto_item_set_generated.exit, label %15

15:                                               ; preds = %8
  %16 = getelementptr inbounds nuw i8, ptr %14, i64 40
  %17 = load ptr, ptr %16, align 8
  %.not5.i = icmp eq ptr %17, null
  br i1 %.not5.i, label %proto_item_set_generated.exit, label %18

18:                                               ; preds = %15
  %19 = getelementptr inbounds nuw i8, ptr %17, i64 28
  %20 = load i32, ptr %19, align 4
  %21 = or i32 %20, 2
  store i32 %21, ptr %19, align 4
  br label %proto_item_set_generated.exit

proto_item_set_generated.exit:                    ; preds = %18, %15, %8, %4
  %22 = load ptr, ptr @rlc_pcch_handle, align 8
  %23 = tail call i32 @call_dissector_with_data(ptr noundef %22, ptr noundef %0, ptr noundef %1, ptr noundef %2, ptr noundef %3)
  %24 = tail call i32 @tvb_captured_length(ptr noundef %0)
  ret i32 %24
}